; ModuleID = '38/1393.c'
source_filename = "38/1393.c"
target datalayout = "e-m:e-p270:32:32-p271:32:32-p272:64:64-i64:64-f80:128-n8:16:32:64-S128"
target triple = "x86_64-pc-linux-gnu"

@.str = private unnamed_addr constant [3 x i8] c"%d\00", align 1
@.str.1 = private unnamed_addr constant [4 x i8] c"%lf\00", align 1
@.str.2 = private unnamed_addr constant [6 x i8] c"%.5f\0A\00", align 1

; Function Attrs: noinline nounwind uwtable
define dso_local i32 @main() #0 {
  %1 = alloca i32, align 4
  %2 = alloca i32, align 4
  %3 = alloca i32, align 4
  %4 = alloca i32, align 4
  %5 = alloca [101 x i32], align 16
  %6 = alloca [101 x double], align 16
  %7 = alloca [101 x double], align 16
  %8 = alloca [101 x double], align 16
  %9 = alloca [101 x double], align 16
  %10 = alloca [101 x double], align 16
  store i32 0, i32* %1, align 4
  store i32 0, i32* %3, align 4
  store i32 0, i32* %4, align 4
  %11 = call i32 (i8*, ...) @__isoc99_scanf(i8* getelementptr inbounds ([3 x i8], [3 x i8]* @.str, i64 0, i64 0), i32* %2)
  %12 = bitcast [101 x i32]* %5 to i8*
  call void @llvm.memset.p0i8.i64(i8* align 16 %12, i8 0, i64 404, i1 false)
  %13 = bitcast [101 x double]* %6 to i8*
  call void @llvm.memset.p0i8.i64(i8* align 16 %13, i8 0, i64 808, i1 false)
  %14 = bitcast [101 x double]* %7 to i8*
  call void @llvm.memset.p0i8.i64(i8* align 16 %14, i8 0, i64 808, i1 false)
  %15 = bitcast [101 x double]* %8 to i8*
  call void @llvm.memset.p0i8.i64(i8* align 16 %15, i8 0, i64 808, i1 false)
  %16 = bitcast [101 x double]* %9 to i8*
  call void @llvm.memset.p0i8.i64(i8* align 16 %16, i8 0, i64 808, i1 false)
  %17 = bitcast [101 x double]* %10 to i8*
  call void @llvm.memset.p0i8.i64(i8* align 16 %17, i8 0, i64 808, i1 false)
  store i32 0, i32* %3, align 4
  br label %18

18:                                               ; preds = %126, %0
  %19 = load i32, i32* %3, align 4
  %20 = load i32, i32* %2, align 4
  %21 = icmp slt i32 %19, %20
  br i1 %21, label %22, label %129

22:                                               ; preds = %18
  %23 = load i32, i32* %3, align 4
  %24 = sext i32 %23 to i64
  %25 = getelementptr inbounds [101 x i32], [101 x i32]* %5, i64 0, i64 %24
  %26 = call i32 (i8*, ...) @__isoc99_scanf(i8* getelementptr inbounds ([3 x i8], [3 x i8]* @.str, i64 0, i64 0), i32* %25)
  store i32 0, i32* %4, align 4
  br label %27

27:                                               ; preds = %51, %22
  %28 = load i32, i32* %4, align 4
  %29 = load i32, i32* %3, align 4
  %30 = sext i32 %29 to i64
  %31 = getelementptr inbounds [101 x i32], [101 x i32]* %5, i64 0, i64 %30
  %32 = load i32, i32* %31, align 4
  %33 = icmp slt i32 %28, %32
  br i1 %33, label %34, label %54

34:                                               ; preds = %27
  %35 = load i32, i32* %4, align 4
  %36 = sext i32 %35 to i64
  %37 = getelementptr inbounds [101 x double], [101 x double]* %6, i64 0, i64 %36
  %38 = call i32 (i8*, ...) @__isoc99_scanf(i8* getelementptr inbounds ([4 x i8], [4 x i8]* @.str.1, i64 0, i64 0), double* %37)
  %39 = load i32, i32* %3, align 4
  %40 = sext i32 %39 to i64
  %41 = getelementptr inbounds [101 x double], [101 x double]* %7, i64 0, i64 %40
  %42 = load double, double* %41, align 8
  %43 = load i32, i32* %4, align 4
  %44 = sext i32 %43 to i64
  %45 = getelementptr inbounds [101 x double], [101 x double]* %6, i64 0, i64 %44
  %46 = load double, double* %45, align 8
  %47 = fadd double %42, %46
  %48 = load i32, i32* %3, align 4
  %49 = sext i32 %48 to i64
  %50 = getelementptr inbounds [101 x double], [101 x double]* %7, i64 0, i64 %49
  store double %47, double* %50, align 8
  br label %51

51:                                               ; preds = %34
  %52 = load i32, i32* %4, align 4
  %53 = add nsw i32 %52, 1
  store i32 %53, i32* %4, align 4
  br label %27

54:                                               ; preds = %27
  %55 = load i32, i32* %3, align 4
  %56 = sext i32 %55 to i64
  %57 = getelementptr inbounds [101 x double], [101 x double]* %7, i64 0, i64 %56
  %58 = load double, double* %57, align 8
  %59 = load i32, i32* %3, align 4
  %60 = sext i32 %59 to i64
  %61 = getelementptr inbounds [101 x i32], [101 x i32]* %5, i64 0, i64 %60
  %62 = load i32, i32* %61, align 4
  %63 = sitofp i32 %62 to double
  %64 = fdiv double %58, %63
  %65 = load i32, i32* %3, align 4
  %66 = sext i32 %65 to i64
  %67 = getelementptr inbounds [101 x double], [101 x double]* %8, i64 0, i64 %66
  store double %64, double* %67, align 8
  store i32 0, i32* %4, align 4
  br label %68

68:                                               ; preds = %103, %54
  %69 = load i32, i32* %4, align 4
  %70 = load i32, i32* %3, align 4
  %71 = sext i32 %70 to i64
  %72 = getelementptr inbounds [101 x i32], [101 x i32]* %5, i64 0, i64 %71
  %73 = load i32, i32* %72, align 4
  %74 = icmp slt i32 %69, %73
  br i1 %74, label %75, label %106

75:                                               ; preds = %68
  %76 = load i32, i32* %3, align 4
  %77 = sext i32 %76 to i64
  %78 = getelementptr inbounds [101 x double], [101 x double]* %9, i64 0, i64 %77
  %79 = load double, double* %78, align 8
  %80 = load i32, i32* %4, align 4
  %81 = sext i32 %80 to i64
  %82 = getelementptr inbounds [101 x double], [101 x double]* %6, i64 0, i64 %81
  %83 = load double, double* %82, align 8
  %84 = load i32, i32* %3, align 4
  %85 = sext i32 %84 to i64
  %86 = getelementptr inbounds [101 x double], [101 x double]* %8, i64 0, i64 %85
  %87 = load double, double* %86, align 8
  %88 = fsub double %83, %87
  %89 = load i32, i32* %4, align 4
  %90 = sext i32 %89 to i64
  %91 = getelementptr inbounds [101 x double], [101 x double]* %6, i64 0, i64 %90
  %92 = load double, double* %91, align 8
  %93 = load i32, i32* %3, align 4
  %94 = sext i32 %93 to i64
  %95 = getelementptr inbounds [101 x double], [101 x double]* %8, i64 0, i64 %94
  %96 = load double, double* %95, align 8
  %97 = fsub double %92, %96
  %98 = fmul double %88, %97
  %99 = fadd double %79, %98
  %100 = load i32, i32* %3, align 4
  %101 = sext i32 %100 to i64
  %102 = getelementptr inbounds [101 x double], [101 x double]* %9, i64 0, i64 %101
  store double %99, double* %102, align 8
  br label %103

103:                                              ; preds = %75
  %104 = load i32, i32* %4, align 4
  %105 = add nsw i32 %104, 1
  store i32 %105, i32* %4, align 4
  br label %68

106:                                              ; preds = %68
  %107 = load i32, i32* %3, align 4
  %108 = sext i32 %107 to i64
  %109 = getelementptr inbounds [101 x double], [101 x double]* %9, i64 0, i64 %108
  %110 = load double, double* %109, align 8
  %111 = load i32, i32* %3, align 4
  %112 = sext i32 %111 to i64
  %113 = getelementptr inbounds [101 x i32], [101 x i32]* %5, i64 0, i64 %112
  %114 = load i32, i32* %113, align 4
  %115 = sitofp i32 %114 to double
  %116 = fdiv double %110, %115
  %117 = call double @sqrt(double %116) #4
  %118 = load i32, i32* %3, align 4
  %119 = sext i32 %118 to i64
  %120 = getelementptr inbounds [101 x double], [101 x double]* %10, i64 0, i64 %119
  store double %117, double* %120, align 8
  %121 = load i32, i32* %3, align 4
  %122 = sext i32 %121 to i64
  %123 = getelementptr inbounds [101 x double], [101 x double]* %10, i64 0, i64 %122
  %124 = load double, double* %123, align 8
  %125 = call i32 (i8*, ...) @printf(i8* getelementptr inbounds ([6 x i8], [6 x i8]* @.str.2, i64 0, i64 0), double %124)
  br label %126

126:                                              ; preds = %106
  %127 = load i32, i32* %3, align 4
  %128 = add nsw i32 %127, 1
  store i32 %128, i32* %3, align 4
  br label %18

129:                                              ; preds = %18
  ret i32 0
}

declare dso_local i32 @__isoc99_scanf(i8*, ...) #1

; Function Attrs: argmemonly nounwind willreturn
declare void @llvm.memset.p0i8.i64(i8* nocapture writeonly, i8, i64, i1 immarg) #2

; Function Attrs: nounwind
declare dso_local double @sqrt(double) #3

declare dso_local i32 @printf(i8*, ...) #1


!llvm.module.flags = !{!0}
!llvm.ident = !{!1}

!0 = !{i32 1, !"wchar_size", i32 4}
!1 = !{!"clang version 10.0.0-4ubuntu1 "}
